; Function Attrs: mustprogress uwtable
define void @_ZNK10open_spiel9oshi_zumo13OshiZumoState14ActionToStringB5cxx11Eil(ptr dead_on_unwind noalias writable sret(%"class.std::__cxx11::basic_string") align 8 %0, ptr noundef nonnull align 8 dereferenceable(112) %1, i32 noundef %2, i64 noundef %3) unnamed_addr #3 align 2 personality ptr @__gxx_personality_v0 {
  %5 = alloca i64, align 8
  %6 = alloca i32, align 4
  %7 = alloca %"class.std::__cxx11::basic_string", align 8
  %8 = alloca i32, align 4
  %9 = alloca %"class.std::allocator", align 1
  %10 = alloca %"class.absl::debian2::AlphaNum", align 8
  %11 = alloca %"class.absl::debian2::AlphaNum", align 8
  %12 = alloca %"class.absl::debian2::AlphaNum", align 8
  %13 = alloca %"class.absl::debian2::AlphaNum", align 8
  %14 = icmp eq i32 %2, -2
  br i1 %14, label %15, label %16

15:                                               ; preds = %4
  tail call void @_ZNK10open_spiel12SimMoveState23FlatJointActionToStringB5cxx11El(ptr dead_on_unwind writable sret(%"class.std::__cxx11::basic_string") align 8 %0, ptr noundef nonnull align 8 dereferenceable(60) %1, i64 noundef %3)
  br label %50

16:                                               ; preds = %4
  store i64 %3, ptr %5, align 8
  store i32 0, ptr %6, align 4
  %17 = icmp sgt i64 %3, -1
  br i1 %17, label %22, label %18

18:                                               ; preds = %16
  store i32 142, ptr %8, align 4
  call void @_ZN10open_spiel8internal11SpielStrCatIJRA138_KcRA2_S2_iS6_RA15_S2_RA11_S2_RA4_S2_RlRA7_S2_RiEEENSt7__cxx1112basic_stringIcSt11char_traitsIcESaIcEEEDpOT_(ptr dead_on_unwind nonnull writable sret(%"class.std::__cxx11::basic_string") align 8 %7, ptr noundef nonnull align 1 dereferenceable(138) @.str.10, ptr noundef nonnull align 1 dereferenceable(2) @.str.11, ptr noundef nonnull align 4 dereferenceable(4) %8, ptr noundef nonnull align 1 dereferenceable(2) @.str.12, ptr noundef nonnull align 1 dereferenceable(15) @.str.26, ptr noundef nonnull align 1 dereferenceable(11) @.str.27, ptr noundef nonnull align 1 dereferenceable(4) @.str.15, ptr noundef nonnull align 8 dereferenceable(8) %5, ptr noundef nonnull align 1 dereferenceable(7) @.str.28, ptr noundef nonnull align 4 dereferenceable(4) %6)
  invoke void @_ZN10open_spiel15SpielFatalErrorERKNSt7__cxx1112basic_stringIcSt11char_traitsIcESaIcEEE(ptr noundef nonnull align 8 dereferenceable(32) %7) #23
          to label %19 unwind label %20

19:                                               ; preds = %18
  unreachable

20:                                               ; preds = %18
  %21 = landingpad { ptr, i32 }
          cleanup
  call void @_ZNSt7__cxx1112basic_stringIcSt11char_traitsIcESaIcEED1Ev(ptr noundef nonnull align 8 dereferenceable(32) %7) #24
  br label %51

22:                                               ; preds = %16
  call void @_ZNSaIcEC1Ev(ptr noundef nonnull align 1 dereferenceable(1) %9) #24
  %23 = invoke noundef ptr @_ZNSt7__cxx1112basic_stringIcSt11char_traitsIcESaIcEE13_M_local_dataEv(ptr noundef nonnull align 8 dereferenceable(32) %0)
          to label %.noexc unwind label %46

.noexc:                                           ; preds = %22
  invoke void @_ZNSt7__cxx1112basic_stringIcSt11char_traitsIcESaIcEE12_Alloc_hiderC1EPcRKS3_(ptr noundef nonnull align 8 dereferenceable(32) %0, ptr noundef %23, ptr noundef nonnull align 1 dereferenceable(1) %9)
          to label %.noexc11 unwind label %46

.noexc11:                                         ; preds = %.noexc
  invoke void @_ZNSt7__cxx1112basic_stringIcSt11char_traitsIcESaIcEE12_M_constructIPKcEEvT_S8_St20forward_iterator_tag(ptr noundef nonnull align 8 dereferenceable(32) %0, ptr noundef nonnull @.str.29, ptr noundef nonnull @.str.29)
          to label %_ZNSt7__cxx1112basic_stringIcSt11char_traitsIcESaIcEEC2IS3_EEPKcRKS3_.exit unwind label %24

24:                                               ; preds = %.noexc11
  %25 = landingpad { ptr, i32 }
          cleanup
  call void @_ZNSaIcED2Ev(ptr noundef nonnull align 8 dereferenceable(32) %0) #24
  br label %.body

_ZNSt7__cxx1112basic_stringIcSt11char_traitsIcESaIcEEC2IS3_EEPKcRKS3_.exit: ; preds = %.noexc11
  call void @_ZNSaIcED1Ev(ptr noundef nonnull align 1 dereferenceable(1) %9) #24
  store ptr @.str.30, ptr %10, align 8
  %26 = getelementptr inbounds nuw i8, ptr %10, i64 8
  store i64 2, ptr %26, align 8
  %27 = getelementptr inbounds nuw i8, ptr %11, i64 16
  %28 = invoke noundef ptr @_ZN4absl7debian216numbers_internal15FastIntToBufferEiPc(i32 noundef %2, ptr noundef nonnull %27)
          to label %.noexc12 unwind label %48

.noexc12:                                         ; preds = %_ZNSt7__cxx1112basic_stringIcSt11char_traitsIcESaIcEEC2IS3_EEPKcRKS3_.exit
  %29 = ptrtoint ptr %28 to i64
  %30 = ptrtoint ptr %27 to i64
  %31 = sub i64 %29, %30
  store ptr %27, ptr %11, align 8
  %32 = icmp sgt i64 %31, -1
  br i1 %32, label %34, label %33

33:                                               ; preds = %.noexc12
  call void @llvm.trap()
  unreachable

34:                                               ; preds = %.noexc12
  %35 = getelementptr inbounds nuw i8, ptr %11, i64 8
  store i64 %31, ptr %35, align 8
  store ptr @.str.31, ptr %12, align 8
  %36 = getelementptr inbounds nuw i8, ptr %12, i64 8
  store i64 6, ptr %36, align 8
  %37 = getelementptr inbounds nuw i8, ptr %13, i64 16
  %38 = invoke noundef ptr @_ZN4absl7debian216numbers_internal15FastIntToBufferElPc(i64 noundef %3, ptr noundef nonnull %37)
          to label %.noexc14 unwind label %48

.noexc14:                                         ; preds = %34
  %39 = ptrtoint ptr %38 to i64
  %40 = ptrtoint ptr %37 to i64
  %41 = sub i64 %39, %40
  store ptr %37, ptr %13, align 8
  %42 = icmp sgt i64 %41, -1
  br i1 %42, label %44, label %43

43:                                               ; preds = %.noexc14
  call void @llvm.trap()
  unreachable

44:                                               ; preds = %.noexc14
  %45 = getelementptr inbounds nuw i8, ptr %13, i64 8
  store i64 %41, ptr %45, align 8
  invoke void @_ZN4absl7debian29StrAppendEPNSt7__cxx1112basic_stringIcSt11char_traitsIcESaIcEEERKNS0_8AlphaNumESA_SA_SA_(ptr noundef nonnull %0, ptr noundef nonnull align 8 dereferenceable(48) %10, ptr noundef nonnull align 8 dereferenceable(48) %11, ptr noundef nonnull align 8 dereferenceable(48) %12, ptr noundef nonnull align 8 dereferenceable(48) %13)
          to label %50 unwind label %48

46:                                               ; preds = %.noexc, %22
  %47 = landingpad { ptr, i32 }
          cleanup
  br label %.body

.body:                                            ; preds = %24, %46
  %eh.lpad-body = phi { ptr, i32 } [ %47, %46 ], [ %25, %24 ]
  call void @_ZNSaIcED1Ev(ptr noundef nonnull align 1 dereferenceable(1) %9) #24
  br label %51

48:                                               ; preds = %34, %_ZNSt7__cxx1112basic_stringIcSt11char_traitsIcESaIcEEC2IS3_EEPKcRKS3_.exit, %44
  %49 = landingpad { ptr, i32 }
          cleanup
  call void @_ZNSt7__cxx1112basic_stringIcSt11char_traitsIcESaIcEED1Ev(ptr noundef nonnull align 8 dereferenceable(32) %0) #24
  br label %51

50:                                               ; preds = %44, %15
  ret void

51:                                               ; preds = %48, %.body, %20
  %.pn = phi { ptr, i32 } [ %49, %48 ], [ %eh.lpad-body, %.body ], [ %21, %20 ]
  resume { ptr, i32 } %.pn
}